target datalayout = "e-m:e-p270:32:32-p271:32:32-p272:64:64-i64:64-i128:128-f80:128-n8:16:32:64-S128"
target triple = "x86_64-pc-linux-gnu"

%struct.epan_uat = type { ptr, i64, ptr, i8, ptr, i32, ptr, ptr, ptr, ptr, ptr, ptr, ptr, ptr, ptr, i32, ptr, ptr, ptr, i8, ptr, ptr, i8 }
%struct._GPtrArray = type { ptr, i32 }

@all_uats = internal global ptr null, align 8
@.str.16 = private unnamed_addr constant [29 x i8] c"Error loading table '%s': %s\00", align 1

; Function Attrs: null_pointer_is_valid sspstrong uwtable
define hidden void @uat_load_all() #0 {
  %1 = alloca i32, align 4
  %2 = alloca ptr, align 8
  %3 = alloca ptr, align 8
  call void @llvm.lifetime.start.p0(i64 4, ptr %1) #13
  call void @llvm.lifetime.start.p0(i64 8, ptr %2) #13
  store i32 0, ptr %1, align 4
  br label %4

4:                                                ; preds = %33, %0
  %5 = load i32, ptr %1, align 4
  %6 = load ptr, ptr @all_uats, align 8
  %7 = getelementptr inbounds nuw %struct._GPtrArray, ptr %6, i32 0, i32 1
  %8 = load i32, ptr %7, align 8
  %9 = icmp ult i32 %5, %8
  br i1 %9, label %10, label %36

10:                                               ; preds = %4
  call void @llvm.lifetime.start.p0(i64 8, ptr %3) #13
  %11 = load ptr, ptr @all_uats, align 8
  %12 = getelementptr inbounds nuw %struct._GPtrArray, ptr %11, i32 0, i32 0
  %13 = load ptr, ptr %12, align 8
  %14 = load i32, ptr %1, align 4
  %15 = zext i32 %14 to i64
  %16 = getelementptr ptr, ptr %13, i64 %15
  %17 = load ptr, ptr %16, align 8
  store ptr %17, ptr %3, align 8
  %18 = load ptr, ptr %3, align 8
  %19 = getelementptr inbounds nuw %struct.epan_uat, ptr %18, i32 0, i32 22
  %20 = load i8, ptr %19, align 8, !range !6, !noundef !7
  %21 = trunc i8 %20 to i1
  br i1 %21, label %32, label %22

22:                                               ; preds = %10
  store ptr null, ptr %2, align 8
  %23 = load ptr, ptr %3, align 8
  %24 = call zeroext i1 @uat_load(ptr noundef %23, ptr noundef null, ptr noundef %2)
  br i1 %24, label %31, label %25

25:                                               ; preds = %22
  %26 = load ptr, ptr %3, align 8
  %27 = getelementptr inbounds nuw %struct.epan_uat, ptr %26, i32 0, i32 0
  %28 = load ptr, ptr %27, align 8
  %29 = load ptr, ptr %2, align 8
  call void (ptr, ...) @report_failure(ptr noundef @.str.16, ptr noundef %28, ptr noundef %29)
  %30 = load ptr, ptr %2, align 8
  call void @g_free(ptr noundef %30)
  br label %31

31:                                               ; preds = %25, %22
  br label %32

32:                                               ; preds = %31, %10
  call void @llvm.lifetime.end.p0(i64 8, ptr %3) #13
  br label %33

33:                                               ; preds = %32
  %34 = load i32, ptr %1, align 4
  %35 = add i32 %34, 1
  store i32 %35, ptr %1, align 4
  br label %4, !llvm.loop !30

36:                                               ; preds = %4
  call void @llvm.lifetime.end.p0(i64 8, ptr %2) #13
  call void @llvm.lifetime.end.p0(i64 4, ptr %1) #13
  ret void
}