; Function Attrs: null_pointer_is_valid sspstrong uwtable
define hidden void @uat_load_all() local_unnamed_addr #0 {
  %1 = alloca ptr, align 8
  call void @llvm.lifetime.start.p0(i64 8, ptr nonnull %1) #17
  %2 = load ptr, ptr @all_uats, align 8
  %3 = getelementptr inbounds nuw i8, ptr %2, i64 8
  %4 = load i32, ptr %3, align 8
  %.not = icmp eq i32 %4, 0
  br i1 %.not, label %._crit_edge, label %.lr.ph

.lr.ph:                                           ; preds = %0, %18
  %indvars.iv = phi i64 [ %indvars.iv.next, %18 ], [ 0, %0 ]
  %5 = phi ptr [ %19, %18 ], [ %2, %0 ]
  %6 = load ptr, ptr %5, align 8
  %7 = getelementptr ptr, ptr %6, i64 %indvars.iv
  %8 = load ptr, ptr %7, align 8
  %9 = getelementptr inbounds nuw i8, ptr %8, i64 176
  %10 = load i8, ptr %9, align 8, !range !9, !noundef !10
  %11 = trunc nuw i8 %10 to i1
  br i1 %11, label %18, label %12

12:                                               ; preds = %.lr.ph
  store ptr null, ptr %1, align 8
  %13 = call zeroext i1 @uat_load(ptr noundef %8, ptr noundef null, ptr noundef nonnull %1)
  br i1 %13, label %18, label %14

14:                                               ; preds = %12
  %15 = load ptr, ptr %8, align 8
  %16 = load ptr, ptr %1, align 8
  call void (ptr, ...) @report_failure(ptr noundef nonnull @.str.16, ptr noundef %15, ptr noundef %16)
  %17 = load ptr, ptr %1, align 8
  call void @g_free(ptr noundef %17)
  br label %18

18:                                               ; preds = %12, %14, %.lr.ph
  %indvars.iv.next = add nuw nsw i64 %indvars.iv, 1
  %19 = load ptr, ptr @all_uats, align 8
  %20 = getelementptr inbounds nuw i8, ptr %19, i64 8
  %21 = load i32, ptr %20, align 8
  %22 = zext i32 %21 to i64
  %23 = icmp samesign ult i64 %indvars.iv.next, %22
  br i1 %23, label %.lr.ph, label %._crit_edge, !llvm.loop !31

._crit_edge:                                      ; preds = %18, %0
  call void @llvm.lifetime.end.p0(i64 8, ptr nonnull %1) #17
  ret void
}